; ModuleID = 'source-C-CXX/42/845.cpp'
source_filename = "source-C-CXX/42/845.cpp"
target datalayout = "e-m:e-p270:32:32-p271:32:32-p272:64:64-i64:64-f80:128-n8:16:32:64-S128"
target triple = "x86_64-pc-linux-gnu"

%"class.std::ios_base::Init" = type { i8 }
%"class.std::basic_istream" = type { i32 (...)**, i64, %"class.std::basic_ios" }
%"class.std::basic_ios" = type { %"class.std::ios_base", %"class.std::basic_ostream"*, i8, i8, %"class.std::basic_streambuf"*, %"class.std::ctype"*, %"class.std::num_put"*, %"class.std::num_get"* }
%"class.std::ios_base" = type { i32 (...)**, i64, i64, i32, i32, i32, %"struct.std::ios_base::_Callback_list"*, %"struct.std::ios_base::_Words", [8 x %"struct.std::ios_base::_Words"], i32, %"struct.std::ios_base::_Words"*, %"class.std::locale" }
%"struct.std::ios_base::_Callback_list" = type { %"struct.std::ios_base::_Callback_list"*, void (i32, %"class.std::ios_base"*, i32)*, i32, i32 }
%"struct.std::ios_base::_Words" = type { i8*, i64 }
%"class.std::locale" = type { %"class.std::locale::_Impl"* }
%"class.std::locale::_Impl" = type { i32, %"class.std::locale::facet"**, i64, %"class.std::locale::facet"**, i8** }
%"class.std::locale::facet" = type <{ i32 (...)**, i32, [4 x i8] }>
%"class.std::basic_ostream" = type { i32 (...)**, %"class.std::basic_ios" }
%"class.std::basic_streambuf" = type { i32 (...)**, i8*, i8*, i8*, i8*, i8*, i8*, %"class.std::locale" }
%"class.std::ctype" = type <{ %"class.std::locale::facet.base", [4 x i8], %struct.__locale_struct*, i8, [7 x i8], i32*, i32*, i16*, i8, [256 x i8], [256 x i8], i8, [6 x i8] }>
%"class.std::locale::facet.base" = type <{ i32 (...)**, i32 }>
%struct.__locale_struct = type { [13 x %struct.__locale_data*], i16*, i32*, i32*, [13 x i8*] }
%struct.__locale_data = type opaque
%"class.std::num_put" = type { %"class.std::locale::facet.base", [4 x i8] }
%"class.std::num_get" = type { %"class.std::locale::facet.base", [4 x i8] }

@_ZStL8__ioinit = internal global %"class.std::ios_base::Init" zeroinitializer, align 1
@__dso_handle = external hidden global i8
@_ZSt3cin = external global %"class.std::basic_istream", align 8
@_ZSt4cout = external global %"class.std::basic_ostream", align 8
@.str = private unnamed_addr constant [2 x i8] c" \00", align 1
@llvm.global_ctors = appending global [1 x { i32, void ()*, i8* }] [{ i32, void ()*, i8* } { i32 65535, void ()* @_GLOBAL__sub_I_845.cpp, i8* null }]

declare void @_ZNSt8ios_base4InitC1Ev(%"class.std::ios_base::Init"* nonnull align 1 dereferenceable(1)) unnamed_addr #0

; Function Attrs: nounwind
declare void @_ZNSt8ios_base4InitD1Ev(%"class.std::ios_base::Init"* nonnull align 1 dereferenceable(1)) unnamed_addr #1

; Function Attrs: nofree nounwind
declare i32 @__cxa_atexit(void (i8*)*, i8*, i8*) local_unnamed_addr #2

; Function Attrs: mustprogress norecurse sspstrong uwtable
define dso_local i32 @main() local_unnamed_addr #3 {
  %1 = alloca i32, align 4
  %2 = bitcast i32* %1 to i8*
  call void @llvm.lifetime.start.p0i8(i64 4, i8* nonnull %2) #8
  %3 = call nonnull align 8 dereferenceable(16) %"class.std::basic_istream"* @_ZNSirsERi(%"class.std::basic_istream"* nonnull align 8 dereferenceable(16) @_ZSt3cin, i32* nonnull align 4 dereferenceable(4) %1)
  %4 = load i32, i32* %1, align 4, !tbaa !5
  %5 = icmp slt i32 %4, 6
  br i1 %5, label %88, label %6

6:                                                ; preds = %0
  %7 = add nsw i32 %4, -2
  %8 = sdiv i32 %7, 4
  br label %9

9:                                                ; preds = %84, %6
  %10 = phi i32 [ 3, %6 ], [ %87, %84 ]
  %11 = phi i32 [ 1, %6 ], [ %85, %84 ]
  %12 = shl nuw nsw i32 %11, 1
  %13 = or i32 %12, 1
  br label %14

14:                                               ; preds = %14, %9
  %15 = phi i32 [ 0, %9 ], [ %25, %14 ]
  %16 = phi i32 [ 1, %9 ], [ %26, %14 ]
  %17 = urem i32 %13, %16
  %18 = icmp ne i32 %17, 0
  %19 = zext i1 %18 to i32
  %20 = add nuw nsw i32 %15, %19
  %21 = add nuw nsw i32 %16, 1
  %22 = urem i32 %13, %21
  %23 = icmp ne i32 %22, 0
  %24 = zext i1 %23 to i32
  %25 = add nuw nsw i32 %20, %24
  %26 = add nuw nsw i32 %16, 2
  %27 = icmp eq i32 %26, %10
  br i1 %27, label %28, label %14, !llvm.loop !9

28:                                               ; preds = %14
  %29 = add nsw i32 %12, -1
  %30 = icmp eq i32 %25, %29
  %31 = sub nsw i32 %4, %13
  %32 = icmp sgt i32 %31, 1
  %33 = select i1 %30, i1 %32, i1 false
  br i1 %33, label %34, label %84

34:                                               ; preds = %28
  %35 = icmp eq i32 %31, 2
  call void @llvm.assume(i1 %35)
  %36 = call nonnull align 8 dereferenceable(8) %"class.std::basic_ostream"* @_ZNSolsEi(%"class.std::basic_ostream"* nonnull align 8 dereferenceable(8) @_ZSt4cout, i32 %13)
  %37 = call nonnull align 8 dereferenceable(8) %"class.std::basic_ostream"* @_ZSt16__ostream_insertIcSt11char_traitsIcEERSt13basic_ostreamIT_T0_ES6_PKS3_l(%"class.std::basic_ostream"* nonnull align 8 dereferenceable(8) %36, i8* nonnull getelementptr inbounds ([2 x i8], [2 x i8]* @.str, i64 0, i64 0), i64 1)
  %38 = call nonnull align 8 dereferenceable(8) %"class.std::basic_ostream"* @_ZNSolsEi(%"class.std::basic_ostream"* nonnull align 8 dereferenceable(8) %36, i32 2)
  %39 = bitcast %"class.std::basic_ostream"* %38 to i8**
  %40 = load i8*, i8** %39, align 8, !tbaa !11
  %41 = getelementptr i8, i8* %40, i64 -24
  %42 = bitcast i8* %41 to i64*
  %43 = load i64, i64* %42, align 8
  %44 = bitcast %"class.std::basic_ostream"* %38 to i8*
  %45 = add nsw i64 %43, 240
  %46 = getelementptr inbounds i8, i8* %44, i64 %45
  %47 = bitcast i8* %46 to %"class.std::ctype"**
  %48 = load %"class.std::ctype"*, %"class.std::ctype"** %47, align 8, !tbaa !13
  %49 = icmp eq %"class.std::ctype"* %48, null
  br i1 %49, label %83, label %50

50:                                               ; preds = %34, %65
  %51 = phi %"class.std::ctype"* [ %81, %65 ], [ %48, %34 ]
  %52 = phi %"class.std::basic_ostream"* [ %71, %65 ], [ %38, %34 ]
  %53 = getelementptr inbounds %"class.std::ctype", %"class.std::ctype"* %51, i64 0, i32 8
  %54 = load i8, i8* %53, align 8, !tbaa !17
  %55 = icmp eq i8 %54, 0
  br i1 %55, label %59, label %56

56:                                               ; preds = %50
  %57 = getelementptr inbounds %"class.std::ctype", %"class.std::ctype"* %51, i64 0, i32 9, i64 10
  %58 = load i8, i8* %57, align 1, !tbaa !19
  br label %65

59:                                               ; preds = %50
  call void @_ZNKSt5ctypeIcE13_M_widen_initEv(%"class.std::ctype"* nonnull align 8 dereferenceable(570) %51)
  %60 = bitcast %"class.std::ctype"* %51 to i8 (%"class.std::ctype"*, i8)***
  %61 = load i8 (%"class.std::ctype"*, i8)**, i8 (%"class.std::ctype"*, i8)*** %60, align 8, !tbaa !11
  %62 = getelementptr inbounds i8 (%"class.std::ctype"*, i8)*, i8 (%"class.std::ctype"*, i8)** %61, i64 6
  %63 = load i8 (%"class.std::ctype"*, i8)*, i8 (%"class.std::ctype"*, i8)** %62, align 8
  %64 = call signext i8 %63(%"class.std::ctype"* nonnull align 8 dereferenceable(570) %51, i8 signext 10)
  br label %65

65:                                               ; preds = %59, %56
  %66 = phi i8 [ %58, %56 ], [ %64, %59 ]
  %67 = call nonnull align 8 dereferenceable(8) %"class.std::basic_ostream"* @_ZNSo3putEc(%"class.std::basic_ostream"* nonnull align 8 dereferenceable(8) %52, i8 signext %66)
  %68 = call nonnull align 8 dereferenceable(8) %"class.std::basic_ostream"* @_ZNSo5flushEv(%"class.std::basic_ostream"* nonnull align 8 dereferenceable(8) %67)
  %69 = call nonnull align 8 dereferenceable(8) %"class.std::basic_ostream"* @_ZNSolsEi(%"class.std::basic_ostream"* nonnull align 8 dereferenceable(8) @_ZSt4cout, i32 %13)
  %70 = call nonnull align 8 dereferenceable(8) %"class.std::basic_ostream"* @_ZSt16__ostream_insertIcSt11char_traitsIcEERSt13basic_ostreamIT_T0_ES6_PKS3_l(%"class.std::basic_ostream"* nonnull align 8 dereferenceable(8) %69, i8* nonnull getelementptr inbounds ([2 x i8], [2 x i8]* @.str, i64 0, i64 0), i64 1)
  %71 = call nonnull align 8 dereferenceable(8) %"class.std::basic_ostream"* @_ZNSolsEi(%"class.std::basic_ostream"* nonnull align 8 dereferenceable(8) %69, i32 2)
  %72 = bitcast %"class.std::basic_ostream"* %71 to i8**
  %73 = load i8*, i8** %72, align 8, !tbaa !11
  %74 = getelementptr i8, i8* %73, i64 -24
  %75 = bitcast i8* %74 to i64*
  %76 = load i64, i64* %75, align 8
  %77 = bitcast %"class.std::basic_ostream"* %71 to i8*
  %78 = add nsw i64 %76, 240
  %79 = getelementptr inbounds i8, i8* %77, i64 %78
  %80 = bitcast i8* %79 to %"class.std::ctype"**
  %81 = load %"class.std::ctype"*, %"class.std::ctype"** %80, align 8, !tbaa !13
  %82 = icmp eq %"class.std::ctype"* %81, null
  br i1 %82, label %83, label %50

83:                                               ; preds = %65, %34
  call void @_ZSt16__throw_bad_castv() #9
  unreachable

84:                                               ; preds = %28
  %85 = add nuw nsw i32 %11, 1
  %86 = icmp slt i32 %11, %8
  %87 = add nuw nsw i32 %10, 2
  br i1 %86, label %9, label %88, !llvm.loop !20

88:                                               ; preds = %84, %0
  call void @llvm.lifetime.end.p0i8(i64 4, i8* nonnull %2) #8
  ret i32 0
}

; Function Attrs: argmemonly mustprogress nofree nosync nounwind willreturn
declare void @llvm.lifetime.start.p0i8(i64 immarg, i8* nocapture) #4

declare nonnull align 8 dereferenceable(16) %"class.std::basic_istream"* @_ZNSirsERi(%"class.std::basic_istream"* nonnull align 8 dereferenceable(16), i32* nonnull align 4 dereferenceable(4)) local_unnamed_addr #0

declare nonnull align 8 dereferenceable(8) %"class.std::basic_ostream"* @_ZNSolsEi(%"class.std::basic_ostream"* nonnull align 8 dereferenceable(8), i32) local_unnamed_addr #0

; Function Attrs: argmemonly mustprogress nofree nosync nounwind willreturn
declare void @llvm.lifetime.end.p0i8(i64 immarg, i8* nocapture) #4

declare nonnull align 8 dereferenceable(8) %"class.std::basic_ostream"* @_ZSt16__ostream_insertIcSt11char_traitsIcEERSt13basic_ostreamIT_T0_ES6_PKS3_l(%"class.std::basic_ostream"* nonnull align 8 dereferenceable(8), i8*, i64) local_unnamed_addr #0

declare nonnull align 8 dereferenceable(8) %"class.std::basic_ostream"* @_ZNSo3putEc(%"class.std::basic_ostream"* nonnull align 8 dereferenceable(8), i8 signext) local_unnamed_addr #0

declare nonnull align 8 dereferenceable(8) %"class.std::basic_ostream"* @_ZNSo5flushEv(%"class.std::basic_ostream"* nonnull align 8 dereferenceable(8)) local_unnamed_addr #0

; Function Attrs: noreturn
declare void @_ZSt16__throw_bad_castv() local_unnamed_addr #5

declare void @_ZNKSt5ctypeIcE13_M_widen_initEv(%"class.std::ctype"* nonnull align 8 dereferenceable(570)) local_unnamed_addr #0

; Function Attrs: sspstrong uwtable
define internal void @_GLOBAL__sub_I_845.cpp() #6 section ".text.startup" {
  tail call void @_ZNSt8ios_base4InitC1Ev(%"class.std::ios_base::Init"* nonnull align 1 dereferenceable(1) @_ZStL8__ioinit)
  %1 = tail call i32 @__cxa_atexit(void (i8*)* bitcast (void (%"class.std::ios_base::Init"*)* @_ZNSt8ios_base4InitD1Ev to void (i8*)*), i8* getelementptr inbounds (%"class.std::ios_base::Init", %"class.std::ios_base::Init"* @_ZStL8__ioinit, i64 0, i32 0), i8* nonnull @__dso_handle) #8
  ret void
}

; Function Attrs: inaccessiblememonly nofree nosync nounwind willreturn
declare void @llvm.assume(i1 noundef) #7


!llvm.module.flags = !{!0, !1, !2, !3}
!llvm.ident = !{!4}

!0 = !{i32 1, !"wchar_size", i32 4}
!1 = !{i32 7, !"PIC Level", i32 2}
!2 = !{i32 7, !"PIE Level", i32 2}
!3 = !{i32 7, !"uwtable", i32 1}
!4 = !{!"clang version 13.0.0"}
!5 = !{!6, !6, i64 0}
!6 = !{!"int", !7, i64 0}
!7 = !{!"omnipotent char", !8, i64 0}
!8 = !{!"Simple C++ TBAA"}
!9 = distinct !{!9, !10}
!10 = !{!"llvm.loop.mustprogress"}
!11 = !{!12, !12, i64 0}
!12 = !{!"vtable pointer", !8, i64 0}
!13 = !{!14, !15, i64 240}
!14 = !{!"_ZTSSt9basic_iosIcSt11char_traitsIcEE", !15, i64 216, !7, i64 224, !16, i64 225, !15, i64 232, !15, i64 240, !15, i64 248, !15, i64 256}
!15 = !{!"any pointer", !7, i64 0}
!16 = !{!"bool", !7, i64 0}
!17 = !{!18, !7, i64 56}
!18 = !{!"_ZTSSt5ctypeIcE", !15, i64 16, !16, i64 24, !15, i64 32, !15, i64 40, !15, i64 48, !7, i64 56, !7, i64 57, !7, i64 313, !7, i64 569}
!19 = !{!7, !7, i64 0}
!20 = distinct !{!20, !10}
